target datalayout = "e-m:e-p270:32:32-p271:32:32-p272:64:64-i64:64-i128:128-f80:128-n8:16:32:64-S128"
target triple = "x86_64-pc-linux-gnu"

%struct.RClass_and_rb_classext_t = type { %struct.RClass, %struct.rb_classext_struct }
%struct.RClass = type { %struct.RBasic, i64, ptr }
%struct.RBasic = type { i64, i64 }
%struct.rb_classext_struct = type { ptr, ptr, ptr, ptr, ptr, i64, ptr, ptr, ptr, ptr, i64, i64, %union.anon, i64, i32, i8, i8, i64 }
%union.anon = type { %struct.anon }
%struct.anon = type { ptr }
%struct.RString = type { %struct.RBasic, i64, %union.anon.20 }
%union.anon.20 = type { %struct.anon.21 }
%struct.anon.21 = type { ptr, %union.anon.22 }
%union.anon.22 = type { i64 }
%struct.anon.23 = type { [1 x i8] }

@rb_eRuntimeError = external global i64, align 8
@.str.1 = private unnamed_addr constant [28 x i8] c"can't change permanent name\00", align 1
@rb_eArgError = external global i64, align 8
@.str.2 = private unnamed_addr constant [24 x i8] c"empty class/module name\00", align 1
@.str.3 = private unnamed_addr constant [66 x i8] c"the temporary name must not be a constant path to avoid confusion\00", align 1
@.str.35 = private unnamed_addr constant [20 x i8] c"../internal/class.h\00", align 1

; Function Attrs: inlinehint nounwind sspstrong willreturn memory(read) uwtable
define internal i64 @RB_FL_TEST_RAW(i64 noundef %0, i64 noundef %1) #2 {
  %3 = alloca i64, align 8
  %4 = alloca i64, align 8
  store i64 %0, ptr %3, align 8, !tbaa !14
  store i64 %1, ptr %4, align 8, !tbaa !14
  %5 = load i64, ptr %3, align 8, !tbaa !14
  %6 = inttoptr i64 %5 to ptr
  %7 = getelementptr inbounds nuw %struct.RBasic, ptr %6, i32 0, i32 0
  %8 = load i64, ptr %7, align 8, !tbaa !102
  %9 = load i64, ptr %4, align 8, !tbaa !14
  %10 = and i64 %8, %9
  ret i64 %10
}

; Function Attrs: inlinehint nounwind sspstrong willreturn memory(none) uwtable
define internal zeroext i1 @RB_IMMEDIATE_P(i64 noundef %0) #5 {
  %2 = alloca i64, align 8
  store i64 %0, ptr %2, align 8, !tbaa !14
  %3 = load i64, ptr %2, align 8, !tbaa !14
  %4 = and i64 %3, 7
  %5 = icmp ne i64 %4, 0
  ret i1 %5
}

; Function Attrs: inlinehint nounwind sspstrong willreturn memory(read) uwtable
define internal zeroext i1 @RB_FL_ANY_RAW(i64 noundef %0, i64 noundef %1) #2 {
  %3 = alloca i64, align 8
  %4 = alloca i64, align 8
  store i64 %0, ptr %3, align 8, !tbaa !14
  store i64 %1, ptr %4, align 8, !tbaa !14
  %5 = load i64, ptr %3, align 8, !tbaa !14
  %6 = load i64, ptr %4, align 8, !tbaa !14
  %7 = call i64 @RB_FL_TEST_RAW(i64 noundef %5, i64 noundef %6) #29
  %8 = icmp ne i64 %7, 0
  ret i1 %8
}

; Function Attrs: inlinehint nounwind sspstrong willreturn memory(none) uwtable
define internal zeroext i1 @RB_SPECIAL_CONST_P(i64 noundef %0) #5 {
  %2 = alloca i64, align 8
  store i64 %0, ptr %2, align 8, !tbaa !14
  %3 = load i64, ptr %2, align 8, !tbaa !14
  %4 = icmp eq i64 %3, 0
  br i1 %4, label %8, label %5

5:                                                ; preds = %1
  %6 = load i64, ptr %2, align 8, !tbaa !14
  %7 = call zeroext i1 @RB_IMMEDIATE_P(i64 noundef %6) #32
  br label %8

8:                                                ; preds = %5, %1
  %9 = phi i1 [ true, %1 ], [ %7, %5 ]
  ret i1 %9
}

; Function Attrs: inlinehint nounwind sspstrong willreturn memory(read, argmem: readwrite) uwtable
define internal void @rbimpl_rstring_getmem(ptr dead_on_unwind noalias writable sret(%struct.RString) align 8 %0, i64 noundef %1) #22 {
  %3 = alloca i64, align 8
  store i64 %1, ptr %3, align 8, !tbaa !14
  %4 = load i64, ptr %3, align 8, !tbaa !14
  %5 = call zeroext i1 @RB_FL_ANY_RAW(i64 noundef %4, i64 noundef 8192) #29
  br i1 %5, label %6, label %9

6:                                                ; preds = %2
  %7 = load i64, ptr %3, align 8, !tbaa !14
  %8 = inttoptr i64 %7 to ptr
  call void @llvm.memcpy.p0.p0.i64(ptr align 8 %0, ptr align 8 %8, i64 40, i1 false), !tbaa.struct !213
  br label %20

9:                                                ; preds = %2
  %10 = load i64, ptr %3, align 8, !tbaa !14
  %11 = call i64 @RSTRING_LEN(i64 noundef %10) #29
  %12 = getelementptr inbounds nuw %struct.RString, ptr %0, i32 0, i32 1
  store i64 %11, ptr %12, align 8, !tbaa !32
  %13 = load i64, ptr %3, align 8, !tbaa !14
  %14 = inttoptr i64 %13 to ptr
  %15 = getelementptr inbounds nuw %struct.RString, ptr %14, i32 0, i32 2
  %16 = getelementptr inbounds nuw %struct.anon.23, ptr %15, i32 0, i32 0
  %17 = getelementptr inbounds [1 x i8], ptr %16, i64 0, i64 0
  %18 = getelementptr inbounds nuw %struct.RString, ptr %0, i32 0, i32 2
  %19 = getelementptr inbounds nuw %struct.anon.21, ptr %18, i32 0, i32 0
  store ptr %17, ptr %19, align 8, !tbaa !36
  br label %20

20:                                               ; preds = %9, %6
  ret void
}

; Function Attrs: inlinehint nounwind sspstrong uwtable
define internal i64 @rb_obj_written(i64 noundef %0, i64 noundef %1, i64 noundef %2, ptr noundef %3, i32 noundef %4) #6 {
  %6 = alloca i64, align 8
  %7 = alloca i64, align 8
  %8 = alloca i64, align 8
  %9 = alloca ptr, align 8
  %10 = alloca i32, align 4
  store i64 %0, ptr %6, align 8, !tbaa !14
  store i64 %1, ptr %7, align 8, !tbaa !14
  store i64 %2, ptr %8, align 8, !tbaa !14
  store ptr %3, ptr %9, align 8, !tbaa !16
  store i32 %4, ptr %10, align 4, !tbaa !51
  %11 = load i64, ptr %8, align 8, !tbaa !14
  %12 = call zeroext i1 @RB_SPECIAL_CONST_P(i64 noundef %11) #32
  br i1 %12, label %16, label %13

13:                                               ; preds = %5
  %14 = load i64, ptr %6, align 8, !tbaa !14
  %15 = load i64, ptr %8, align 8, !tbaa !14
  call void @rb_gc_writebarrier(i64 noundef %14, i64 noundef %15)
  br label %16

16:                                               ; preds = %13, %5
  %17 = load i64, ptr %6, align 8, !tbaa !14
  ret i64 %17
}

; Function Attrs: inlinehint nounwind sspstrong uwtable
define internal ptr @RSTRING_END(i64 noundef %0) #6 {
  %2 = alloca i64, align 8
  %3 = alloca %struct.RString, align 8
  store i64 %0, ptr %2, align 8, !tbaa !14
  call void @llvm.lifetime.start.p0(i64 40, ptr %3) #30
  %4 = load i64, ptr %2, align 8, !tbaa !14
  call void @rbimpl_rstring_getmem(ptr dead_on_unwind writable sret(%struct.RString) align 8 %3, i64 noundef %4) #33
  %5 = getelementptr inbounds nuw %struct.RString, ptr %3, i32 0, i32 2
  %6 = getelementptr inbounds nuw %struct.anon.21, ptr %5, i32 0, i32 0
  %7 = load ptr, ptr %6, align 8, !tbaa !36
  %8 = getelementptr inbounds nuw %struct.RString, ptr %3, i32 0, i32 1
  %9 = load i64, ptr %8, align 8, !tbaa !32
  %10 = getelementptr i8, ptr %7, i64 %9
  call void @llvm.lifetime.end.p0(i64 40, ptr %3) #30
  ret ptr %10
}

; Function Attrs: inlinehint nounwind sspstrong uwtable
define internal ptr @RSTRING_PTR(i64 noundef %0) #6 {
  %2 = alloca i64, align 8
  %3 = alloca ptr, align 8
  %4 = alloca %struct.RString, align 8
  store i64 %0, ptr %2, align 8, !tbaa !14
  call void @llvm.lifetime.start.p0(i64 8, ptr %3) #30
  %5 = load i64, ptr %2, align 8, !tbaa !14
  call void @rbimpl_rstring_getmem(ptr dead_on_unwind writable sret(%struct.RString) align 8 %4, i64 noundef %5) #33
  %6 = getelementptr inbounds nuw %struct.RString, ptr %4, i32 0, i32 2
  %7 = getelementptr inbounds nuw %struct.anon.21, ptr %6, i32 0, i32 0
  %8 = load ptr, ptr %7, align 8, !tbaa !36
  store ptr %8, ptr %3, align 8, !tbaa !16
  %9 = load ptr, ptr %3, align 8, !tbaa !16
  call void @llvm.lifetime.end.p0(i64 8, ptr %3) #30
  ret ptr %9
}

; Function Attrs: inlinehint nounwind sspstrong uwtable
define internal i64 @rb_obj_write(i64 noundef %0, ptr noundef %1, i64 noundef %2, ptr noundef %3, i32 noundef %4) #6 {
  %6 = alloca i64, align 8
  %7 = alloca ptr, align 8
  %8 = alloca i64, align 8
  %9 = alloca ptr, align 8
  %10 = alloca i32, align 4
  store i64 %0, ptr %6, align 8, !tbaa !14
  store ptr %1, ptr %7, align 8, !tbaa !49
  store i64 %2, ptr %8, align 8, !tbaa !14
  store ptr %3, ptr %9, align 8, !tbaa !16
  store i32 %4, ptr %10, align 4, !tbaa !51
  %11 = load i64, ptr %8, align 8, !tbaa !14
  %12 = load ptr, ptr %7, align 8, !tbaa !49
  store i64 %11, ptr %12, align 8, !tbaa !14
  %13 = load i64, ptr %6, align 8, !tbaa !14
  %14 = load i64, ptr %8, align 8, !tbaa !14
  %15 = load ptr, ptr %9, align 8, !tbaa !16
  %16 = load i32, ptr %10, align 4, !tbaa !51
  %17 = call i64 @rb_obj_written(i64 noundef %13, i64 noundef 36, i64 noundef %14, ptr noundef %15, i32 noundef %16)
  %18 = load i64, ptr %6, align 8, !tbaa !14
  ret i64 %18
}

; Function Attrs: nounwind sspstrong uwtable
define internal zeroext i1 @is_constant_path(i64 noundef %0) #0 {
  %2 = alloca i1, align 1
  %3 = alloca i64, align 8
  %4 = alloca ptr, align 8
  %5 = alloca ptr, align 8
  %6 = alloca ptr, align 8
  %7 = alloca ptr, align 8
  %8 = alloca i32, align 4
  %9 = alloca ptr, align 8
  store i64 %0, ptr %3, align 8, !tbaa !14
  call void @llvm.lifetime.start.p0(i64 8, ptr %4) #30
  %10 = load i64, ptr %3, align 8, !tbaa !14
  %11 = call ptr @RSTRING_PTR(i64 noundef %10)
  store ptr %11, ptr %4, align 8, !tbaa !16
  call void @llvm.lifetime.start.p0(i64 8, ptr %5) #30
  %12 = load i64, ptr %3, align 8, !tbaa !14
  %13 = call ptr @RSTRING_END(i64 noundef %12)
  store ptr %13, ptr %5, align 8, !tbaa !16
  call void @llvm.lifetime.start.p0(i64 8, ptr %6) #30
  %14 = load i64, ptr %3, align 8, !tbaa !14
  %15 = call ptr @rb_enc_get(i64 noundef %14)
  store ptr %15, ptr %6, align 8, !tbaa !34
  call void @llvm.lifetime.start.p0(i64 8, ptr %7) #30
  %16 = load ptr, ptr %4, align 8, !tbaa !16
  store ptr %16, ptr %7, align 8, !tbaa !16
  %17 = load ptr, ptr %7, align 8, !tbaa !16
  %18 = load ptr, ptr %5, align 8, !tbaa !16
  %19 = icmp uge ptr %17, %18
  br i1 %19, label %24, label %20

20:                                               ; preds = %1
  %21 = load ptr, ptr %7, align 8, !tbaa !16
  %22 = load i8, ptr %21, align 1, !tbaa !36
  %23 = icmp ne i8 %22, 0
  br i1 %23, label %25, label %24

24:                                               ; preds = %20, %1
  store i1 false, ptr %2, align 1
  store i32 1, ptr %8, align 4
  br label %87

25:                                               ; preds = %20
  br label %26

26:                                               ; preds = %85, %25
  %27 = load ptr, ptr %7, align 8, !tbaa !16
  %28 = load ptr, ptr %5, align 8, !tbaa !16
  %29 = icmp ult ptr %27, %28
  br i1 %29, label %30, label %86

30:                                               ; preds = %26
  %31 = load ptr, ptr %7, align 8, !tbaa !16
  %32 = getelementptr i8, ptr %31, i64 2
  %33 = load ptr, ptr %5, align 8, !tbaa !16
  %34 = icmp ule ptr %32, %33
  br i1 %34, label %35, label %50

35:                                               ; preds = %30
  %36 = load ptr, ptr %7, align 8, !tbaa !16
  %37 = getelementptr i8, ptr %36, i64 0
  %38 = load i8, ptr %37, align 1, !tbaa !36
  %39 = sext i8 %38 to i32
  %40 = icmp eq i32 %39, 58
  br i1 %40, label %41, label %50

41:                                               ; preds = %35
  %42 = load ptr, ptr %7, align 8, !tbaa !16
  %43 = getelementptr i8, ptr %42, i64 1
  %44 = load i8, ptr %43, align 1, !tbaa !36
  %45 = sext i8 %44 to i32
  %46 = icmp eq i32 %45, 58
  br i1 %46, label %47, label %50

47:                                               ; preds = %41
  %48 = load ptr, ptr %7, align 8, !tbaa !16
  %49 = getelementptr i8, ptr %48, i64 2
  store ptr %49, ptr %7, align 8, !tbaa !16
  br label %50

50:                                               ; preds = %47, %41, %35, %30
  call void @llvm.lifetime.start.p0(i64 8, ptr %9) #30
  %51 = load ptr, ptr %7, align 8, !tbaa !16
  store ptr %51, ptr %9, align 8, !tbaa !16
  br label %52

52:                                               ; preds = %63, %50
  %53 = load ptr, ptr %7, align 8, !tbaa !16
  %54 = load ptr, ptr %5, align 8, !tbaa !16
  %55 = icmp ult ptr %53, %54
  br i1 %55, label %56, label %61

56:                                               ; preds = %52
  %57 = load ptr, ptr %7, align 8, !tbaa !16
  %58 = load i8, ptr %57, align 1, !tbaa !36
  %59 = sext i8 %58 to i32
  %60 = icmp ne i32 %59, 58
  br label %61

61:                                               ; preds = %56, %52
  %62 = phi i1 [ false, %52 ], [ %60, %56 ]
  br i1 %62, label %63, label %66

63:                                               ; preds = %61
  %64 = load ptr, ptr %7, align 8, !tbaa !16
  %65 = getelementptr i8, ptr %64, i32 1
  store ptr %65, ptr %7, align 8, !tbaa !16
  br label %52, !llvm.loop !37

66:                                               ; preds = %61
  %67 = load ptr, ptr %9, align 8, !tbaa !16
  %68 = load ptr, ptr %7, align 8, !tbaa !16
  %69 = icmp eq ptr %67, %68
  br i1 %69, label %70, label %71

70:                                               ; preds = %66
  store i1 false, ptr %2, align 1
  store i32 1, ptr %8, align 4
  br label %83

71:                                               ; preds = %66
  %72 = load ptr, ptr %9, align 8, !tbaa !16
  %73 = load ptr, ptr %7, align 8, !tbaa !16
  %74 = load ptr, ptr %9, align 8, !tbaa !16
  %75 = ptrtoint ptr %73 to i64
  %76 = ptrtoint ptr %74 to i64
  %77 = sub i64 %75, %76
  %78 = load ptr, ptr %6, align 8, !tbaa !34
  %79 = call i32 @rb_enc_symname_type(ptr noundef %72, i64 noundef %77, ptr noundef %78, i32 noundef 0)
  %80 = icmp ne i32 %79, 10
  br i1 %80, label %81, label %82

81:                                               ; preds = %71
  store i1 false, ptr %2, align 1
  store i32 1, ptr %8, align 4
  br label %83

82:                                               ; preds = %71
  store i32 0, ptr %8, align 4
  br label %83

83:                                               ; preds = %82, %81, %70
  call void @llvm.lifetime.end.p0(i64 8, ptr %9) #30
  %84 = load i32, ptr %8, align 4
  switch i32 %84, label %87 [
    i32 0, label %85
  ]

85:                                               ; preds = %83
  br label %26, !llvm.loop !39

86:                                               ; preds = %26
  store i1 true, ptr %2, align 1
  store i32 1, ptr %8, align 4
  br label %87

87:                                               ; preds = %86, %83, %24
  call void @llvm.lifetime.end.p0(i64 8, ptr %7) #30
  call void @llvm.lifetime.end.p0(i64 8, ptr %6) #30
  call void @llvm.lifetime.end.p0(i64 8, ptr %5) #30
  call void @llvm.lifetime.end.p0(i64 8, ptr %4) #30
  %88 = load i1, ptr %2, align 1
  ret i1 %88
}

; Function Attrs: inlinehint nounwind sspstrong willreturn memory(read) uwtable
define internal i64 @RSTRING_LEN(i64 noundef %0) #2 {
  %2 = alloca i64, align 8
  store i64 %0, ptr %2, align 8, !tbaa !14
  %3 = load i64, ptr %2, align 8, !tbaa !14
  %4 = inttoptr i64 %3 to ptr
  %5 = getelementptr inbounds nuw %struct.RString, ptr %4, i32 0, i32 1
  %6 = load i64, ptr %5, align 8, !tbaa !32
  ret i64 %6
}

; Function Attrs: inlinehint nounwind sspstrong uwtable
define internal void @RCLASS_SET_CLASSPATH(i64 noundef %0, i64 noundef %1, i1 noundef zeroext %2) #6 {
  %4 = alloca i64, align 8
  %5 = alloca i64, align 8
  %6 = alloca i8, align 1
  store i64 %0, ptr %4, align 8, !tbaa !14
  store i64 %1, ptr %5, align 8, !tbaa !14
  %7 = zext i1 %2 to i8
  store i8 %7, ptr %6, align 1, !tbaa !20
  %8 = load i64, ptr %4, align 8, !tbaa !14
  %9 = load i64, ptr %4, align 8, !tbaa !14
  %10 = inttoptr i64 %9 to ptr
  %11 = getelementptr inbounds nuw %struct.RClass_and_rb_classext_t, ptr %10, i32 0, i32 1
  %12 = getelementptr inbounds nuw %struct.rb_classext_struct, ptr %11, i32 0, i32 17
  %13 = load i64, ptr %5, align 8, !tbaa !14
  %14 = call i64 @rb_obj_write(i64 noundef %8, ptr noundef %12, i64 noundef %13, ptr noundef @.str.35, i32 noundef 270)
  %15 = load i8, ptr %6, align 1, !tbaa !20, !range !30, !noundef !31
  %16 = trunc i8 %15 to i1
  %17 = load i64, ptr %4, align 8, !tbaa !14
  %18 = inttoptr i64 %17 to ptr
  %19 = getelementptr inbounds nuw %struct.RClass_and_rb_classext_t, ptr %18, i32 0, i32 1
  %20 = getelementptr inbounds nuw %struct.rb_classext_struct, ptr %19, i32 0, i32 16
  %21 = zext i1 %16 to i8
  %22 = load i8, ptr %20, align 1
  %23 = and i8 %22, -2
  %24 = or i8 %23, %21
  store i8 %24, ptr %20, align 1
  ret void
}

; Function Attrs: inlinehint nounwind sspstrong willreturn memory(none) uwtable
define internal zeroext i1 @RB_NIL_P(i64 noundef %0) #5 {
  %2 = alloca i64, align 8
  store i64 %0, ptr %2, align 8, !tbaa !14
  %3 = load i64, ptr %2, align 8, !tbaa !14
  %4 = icmp eq i64 %3, 4
  ret i1 %4
}

; Function Attrs: nounwind sspstrong uwtable
define hidden i64 @rb_mod_set_temporary_name(i64 noundef %0, i64 noundef %1) #0 {
  %3 = alloca i64, align 8
  %4 = alloca i64, align 8
  store i64 %0, ptr %3, align 8, !tbaa !14
  store i64 %1, ptr %4, align 8, !tbaa !14
  %5 = load i64, ptr %3, align 8, !tbaa !14
  %6 = inttoptr i64 %5 to ptr
  %7 = getelementptr inbounds nuw %struct.RClass_and_rb_classext_t, ptr %6, i32 0, i32 1
  %8 = getelementptr inbounds nuw %struct.rb_classext_struct, ptr %7, i32 0, i32 16
  %9 = load i8, ptr %8, align 1
  %10 = and i8 %9, 1
  %11 = trunc i8 %10 to i1
  br i1 %11, label %12, label %14

12:                                               ; preds = %2
  %13 = load i64, ptr @rb_eRuntimeError, align 8, !tbaa !14
  call void (i64, ptr, ...) @rb_raise(i64 noundef %13, ptr noundef @.str.1) #31
  unreachable

14:                                               ; preds = %2
  %15 = load i64, ptr %4, align 8, !tbaa !14
  %16 = call zeroext i1 @RB_NIL_P(i64 noundef %15) #32
  br i1 %16, label %17, label %19

17:                                               ; preds = %14
  %18 = load i64, ptr %3, align 8, !tbaa !14
  call void @RCLASS_SET_CLASSPATH(i64 noundef %18, i64 noundef 0, i1 noundef zeroext false)
  br label %34

19:                                               ; preds = %14
  %20 = call i64 @rb_string_value(ptr noundef %4)
  %21 = load i64, ptr %4, align 8, !tbaa !14
  %22 = call i64 @RSTRING_LEN(i64 noundef %21) #29
  %23 = icmp eq i64 %22, 0
  br i1 %23, label %24, label %26

24:                                               ; preds = %19
  %25 = load i64, ptr @rb_eArgError, align 8, !tbaa !14
  call void (i64, ptr, ...) @rb_raise(i64 noundef %25, ptr noundef @.str.2) #31
  unreachable

26:                                               ; preds = %19
  %27 = load i64, ptr %4, align 8, !tbaa !14
  %28 = call zeroext i1 @is_constant_path(i64 noundef %27)
  br i1 %28, label %29, label %31

29:                                               ; preds = %26
  %30 = load i64, ptr @rb_eArgError, align 8, !tbaa !14
  call void (i64, ptr, ...) @rb_raise(i64 noundef %30, ptr noundef @.str.3) #31
  unreachable

31:                                               ; preds = %26
  %32 = load i64, ptr %3, align 8, !tbaa !14
  %33 = load i64, ptr %4, align 8, !tbaa !14
  call void @RCLASS_SET_CLASSPATH(i64 noundef %32, i64 noundef %33, i1 noundef zeroext false)
  br label %34

34:                                               ; preds = %31, %17
  %35 = load i64, ptr %3, align 8, !tbaa !14
  ret i64 %35
}