; Function Attrs: nounwind sspstrong uwtable
define hidden noundef i64 @rb_mod_set_temporary_name(i64 noundef returned %0, i64 noundef %1) local_unnamed_addr #0 {
  %3 = alloca i64, align 8
  store i64 %1, ptr %3, align 8, !tbaa !14
  %4 = inttoptr i64 %0 to ptr
  %5 = getelementptr inbounds nuw i8, ptr %4, i64 149
  %6 = load i8, ptr %5, align 1
  %7 = trunc i8 %6 to i1
  br i1 %7, label %8, label %10

8:                                                ; preds = %2
  %9 = load i64, ptr @rb_eRuntimeError, align 8, !tbaa !14
  tail call void (i64, ptr, ...) @rb_raise(i64 noundef %9, ptr noundef nonnull @.str.1) #28
  unreachable

10:                                               ; preds = %2
  %11 = icmp eq i64 %1, 4
  br i1 %11, label %12, label %14

12:                                               ; preds = %10
  %13 = getelementptr inbounds nuw i8, ptr %4, i64 152
  store i64 0, ptr %13, align 8, !tbaa !14
  br label %62

14:                                               ; preds = %10
  %15 = call i64 @rb_string_value(ptr noundef nonnull %3) #27
  %16 = load i64, ptr %3, align 8, !tbaa !14
  %17 = inttoptr i64 %16 to ptr
  %18 = getelementptr inbounds nuw i8, ptr %17, i64 16
  %19 = load i64, ptr %18, align 8, !tbaa !26
  %20 = icmp eq i64 %19, 0
  br i1 %20, label %21, label %23

21:                                               ; preds = %14
  %22 = load i64, ptr @rb_eArgError, align 8, !tbaa !14
  call void (i64, ptr, ...) @rb_raise(i64 noundef %22, ptr noundef nonnull @.str.2) #28
  unreachable

23:                                               ; preds = %14
  %24 = load i64, ptr %17, align 8, !tbaa !28, !noalias !29
  %25 = and i64 %24, 8192
  %.not.i.i.i = icmp eq i64 %25, 0
  %26 = getelementptr inbounds nuw i8, ptr %17, i64 24
  br i1 %.not.i.i.i, label %RSTRING_END.exit.i, label %27

27:                                               ; preds = %23
  %.sroa.2.0.copyload.i.i = load ptr, ptr %26, align 8
  br label %RSTRING_END.exit.i

RSTRING_END.exit.i:                               ; preds = %27, %23
  %.sroa.5.0.i.i = phi ptr [ %.sroa.2.0.copyload.i.i, %27 ], [ %26, %23 ]
  %28 = getelementptr i8, ptr %.sroa.5.0.i.i, i64 %19
  %29 = call ptr @rb_enc_get(i64 noundef %16) #27
  %.not.i = icmp ult ptr %.sroa.5.0.i.i, %28
  br i1 %.not.i, label %30, label %.loopexit

30:                                               ; preds = %RSTRING_END.exit.i
  %31 = load i8, ptr %.sroa.5.0.i.i, align 1, !tbaa !32
  %.not33.i = icmp eq i8 %31, 0
  br i1 %.not33.i, label %.loopexit, label %.preheader.i

.preheader.i:                                     ; preds = %30, %48
  %.027.i = phi ptr [ %.229.lcssa.i, %48 ], [ %.sroa.5.0.i.i, %30 ]
  %.not45.i = icmp ult ptr %.027.i, %28
  br i1 %.not45.i, label %32, label %is_constant_path.exit

32:                                               ; preds = %.preheader.i
  %33 = getelementptr i8, ptr %.027.i, i64 2
  %.not34.i = icmp ugt ptr %33, %28
  br i1 %.not34.i, label %41, label %34

34:                                               ; preds = %32
  %35 = load i8, ptr %.027.i, align 1, !tbaa !32
  %36 = icmp eq i8 %35, 58
  br i1 %36, label %37, label %41

37:                                               ; preds = %34
  %38 = getelementptr i8, ptr %.027.i, i64 1
  %39 = load i8, ptr %38, align 1, !tbaa !32
  %40 = icmp eq i8 %39, 58
  %spec.select.i = select i1 %40, ptr %33, ptr %.027.i
  br label %41

41:                                               ; preds = %37, %34, %32
  %.128.i = phi ptr [ %.027.i, %34 ], [ %.027.i, %32 ], [ %spec.select.i, %37 ]
  %42 = icmp ult ptr %.128.i, %28
  br i1 %42, label %.lr.ph.i, label %.critedge.i

.lr.ph.i:                                         ; preds = %41, %44
  %.22942.i = phi ptr [ %45, %44 ], [ %.128.i, %41 ]
  %43 = load i8, ptr %.22942.i, align 1, !tbaa !32
  %.not35.i = icmp eq i8 %43, 58
  br i1 %.not35.i, label %.critedge.i, label %44

44:                                               ; preds = %.lr.ph.i
  %45 = getelementptr i8, ptr %.22942.i, i64 1
  %46 = icmp ult ptr %45, %28
  br i1 %46, label %.lr.ph.i, label %.critedge.i, !llvm.loop !33

.critedge.i:                                      ; preds = %44, %.lr.ph.i, %41
  %.229.lcssa.i = phi ptr [ %.128.i, %41 ], [ %.22942.i, %.lr.ph.i ], [ %45, %44 ]
  %47 = icmp eq ptr %.128.i, %.229.lcssa.i
  br i1 %47, label %.loopexit, label %48

48:                                               ; preds = %.critedge.i
  %49 = ptrtoint ptr %.229.lcssa.i to i64
  %50 = ptrtoint ptr %.128.i to i64
  %51 = sub i64 %49, %50
  %52 = call i32 @rb_enc_symname_type(ptr noundef %.128.i, i64 noundef %51, ptr noundef %29, i32 noundef 0) #27
  %.not36.i = icmp eq i32 %52, 10
  br i1 %.not36.i, label %.preheader.i, label %.loopexit, !llvm.loop !35

is_constant_path.exit:                            ; preds = %.preheader.i
  %53 = load i64, ptr @rb_eArgError, align 8, !tbaa !14
  call void (i64, ptr, ...) @rb_raise(i64 noundef %53, ptr noundef nonnull @.str.3) #28
  unreachable

.loopexit:                                        ; preds = %.critedge.i, %48, %30, %RSTRING_END.exit.i
  %54 = load i64, ptr %3, align 8, !tbaa !14
  %55 = getelementptr inbounds nuw i8, ptr %4, i64 152
  store i64 %54, ptr %55, align 8, !tbaa !14
  %56 = icmp eq i64 %54, 0
  %57 = and i64 %54, 7
  %58 = icmp ne i64 %57, 0
  %59 = or i1 %56, %58
  br i1 %59, label %RCLASS_SET_CLASSPATH.exit, label %60

60:                                               ; preds = %.loopexit
  call void @rb_gc_writebarrier(i64 noundef %0, i64 noundef %54) #27
  br label %RCLASS_SET_CLASSPATH.exit

RCLASS_SET_CLASSPATH.exit:                        ; preds = %.loopexit, %60
  %61 = load i8, ptr %5, align 1
  br label %62

62:                                               ; preds = %RCLASS_SET_CLASSPATH.exit, %12
  %storemerge.in = phi i8 [ %61, %RCLASS_SET_CLASSPATH.exit ], [ %6, %12 ]
  %storemerge = and i8 %storemerge.in, -2
  store i8 %storemerge, ptr %5, align 1
  ret i64 %0
}